target datalayout = "e-m:e-p270:32:32-p271:32:32-p272:64:64-i64:64-i128:128-f80:128-n8:16:32:64-S128"
target triple = "x86_64-pc-linux-gnu"

%struct.ZSTD_seqSymbol = type { i16, i8, i8, i32 }
%struct.ZSTD_DCtx_s = type { ptr, ptr, ptr, ptr, %struct.ZSTD_entropyDTables_t, [640 x i32], ptr, ptr, ptr, ptr, i64, %struct.ZSTD_FrameHeader, i64, i64, i32, i32, i32, i32, %struct.XXH64_state_s, i64, i32, i32, i32, ptr, %struct.ZSTD_customMem, i64, i64, i64, i32, i32, ptr, ptr, i32, i32, i32, ptr, i32, i32, i32, i32, ptr, i64, i64, i64, ptr, i64, i64, i64, i64, ptr, i32, i32, i32, i32, i32, %struct.ZSTD_outBuffer_s, ptr, ptr, i32, [65568 x i8], [18 x i8], i64, i64 }
%struct.ZSTD_entropyDTables_t = type { [513 x %struct.ZSTD_seqSymbol], [257 x %struct.ZSTD_seqSymbol], [513 x %struct.ZSTD_seqSymbol], [4097 x i32], [3 x i32], [157 x i32] }
%struct.ZSTD_FrameHeader = type { i64, i64, i32, i32, i32, i32, i32, i32, i32 }
%struct.XXH64_state_s = type { i64, [4 x i64], [4 x i64], i32, i32, i64 }
%struct.ZSTD_customMem = type { ptr, ptr, ptr }
%struct.ZSTD_outBuffer_s = type { ptr, i64, i64 }

; Function Attrs: nounwind uwtable
define internal i32 @ERR_isError(i64 noundef %0) #0 {
  %2 = alloca i64, align 8
  store i64 %0, ptr %2, align 8, !tbaa !7
  %3 = load i64, ptr %2, align 8, !tbaa !7
  %4 = icmp ugt i64 %3, -120
  %5 = zext i1 %4 to i32
  ret i32 %5
}

; Function Attrs: nounwind uwtable
define void @ZSTD_checkContinuity(ptr noundef %0, ptr noundef %1, i64 noundef %2) #0 {
  %4 = alloca ptr, align 8
  %5 = alloca ptr, align 8
  %6 = alloca i64, align 8
  store ptr %0, ptr %4, align 8, !tbaa !16
  store ptr %1, ptr %5, align 8, !tbaa !3
  store i64 %2, ptr %6, align 8, !tbaa !7
  %7 = load ptr, ptr %5, align 8, !tbaa !3
  %8 = load ptr, ptr %4, align 8, !tbaa !16
  %9 = getelementptr inbounds nuw %struct.ZSTD_DCtx_s, ptr %8, i32 0, i32 6
  %10 = load ptr, ptr %9, align 8, !tbaa !57
  %11 = icmp ne ptr %7, %10
  br i1 %11, label %12, label %41

12:                                               ; preds = %3
  %13 = load i64, ptr %6, align 8, !tbaa !7
  %14 = icmp ugt i64 %13, 0
  br i1 %14, label %15, label %41

15:                                               ; preds = %12
  %16 = load ptr, ptr %4, align 8, !tbaa !16
  %17 = getelementptr inbounds nuw %struct.ZSTD_DCtx_s, ptr %16, i32 0, i32 6
  %18 = load ptr, ptr %17, align 8, !tbaa !57
  %19 = load ptr, ptr %4, align 8, !tbaa !16
  %20 = getelementptr inbounds nuw %struct.ZSTD_DCtx_s, ptr %19, i32 0, i32 9
  store ptr %18, ptr %20, align 8, !tbaa !58
  %21 = load ptr, ptr %5, align 8, !tbaa !3
  %22 = load ptr, ptr %4, align 8, !tbaa !16
  %23 = getelementptr inbounds nuw %struct.ZSTD_DCtx_s, ptr %22, i32 0, i32 6
  %24 = load ptr, ptr %23, align 8, !tbaa !57
  %25 = load ptr, ptr %4, align 8, !tbaa !16
  %26 = getelementptr inbounds nuw %struct.ZSTD_DCtx_s, ptr %25, i32 0, i32 7
  %27 = load ptr, ptr %26, align 8, !tbaa !59
  %28 = ptrtoint ptr %24 to i64
  %29 = ptrtoint ptr %27 to i64
  %30 = sub i64 %28, %29
  %31 = sub i64 0, %30
  %32 = getelementptr inbounds i8, ptr %21, i64 %31
  %33 = load ptr, ptr %4, align 8, !tbaa !16
  %34 = getelementptr inbounds nuw %struct.ZSTD_DCtx_s, ptr %33, i32 0, i32 8
  store ptr %32, ptr %34, align 8, !tbaa !47
  %35 = load ptr, ptr %5, align 8, !tbaa !3
  %36 = load ptr, ptr %4, align 8, !tbaa !16
  %37 = getelementptr inbounds nuw %struct.ZSTD_DCtx_s, ptr %36, i32 0, i32 7
  store ptr %35, ptr %37, align 8, !tbaa !59
  %38 = load ptr, ptr %5, align 8, !tbaa !3
  %39 = load ptr, ptr %4, align 8, !tbaa !16
  %40 = getelementptr inbounds nuw %struct.ZSTD_DCtx_s, ptr %39, i32 0, i32 6
  store ptr %38, ptr %40, align 8, !tbaa !57
  br label %41

41:                                               ; preds = %15, %12, %3
  ret void
}

; Function Attrs: nounwind uwtable
define i64 @ZSTD_decompressBlock_deprecated(ptr noundef %0, ptr noundef %1, i64 noundef %2, ptr noundef %3, i64 noundef %4) #0 {
  %6 = alloca i64, align 8
  %7 = alloca ptr, align 8
  %8 = alloca ptr, align 8
  %9 = alloca i64, align 8
  %10 = alloca ptr, align 8
  %11 = alloca i64, align 8
  %12 = alloca i64, align 8
  %13 = alloca i64, align 8
  %14 = alloca i32, align 4
  store ptr %0, ptr %7, align 8, !tbaa !16
  store ptr %1, ptr %8, align 8, !tbaa !3
  store i64 %2, ptr %9, align 8, !tbaa !7
  store ptr %3, ptr %10, align 8, !tbaa !3
  store i64 %4, ptr %11, align 8, !tbaa !7
  call void @llvm.lifetime.start.p0(i64 8, ptr %12) #14
  %15 = load ptr, ptr %7, align 8, !tbaa !16
  %16 = getelementptr inbounds nuw %struct.ZSTD_DCtx_s, ptr %15, i32 0, i32 28
  store i32 0, ptr %16, align 8, !tbaa !18
  %17 = load ptr, ptr %7, align 8, !tbaa !16
  %18 = load ptr, ptr %8, align 8, !tbaa !3
  %19 = load i64, ptr %9, align 8, !tbaa !7
  call void @ZSTD_checkContinuity(ptr noundef %17, ptr noundef %18, i64 noundef %19)
  %20 = load ptr, ptr %7, align 8, !tbaa !16
  %21 = load ptr, ptr %8, align 8, !tbaa !3
  %22 = load i64, ptr %9, align 8, !tbaa !7
  %23 = load ptr, ptr %10, align 8, !tbaa !3
  %24 = load i64, ptr %11, align 8, !tbaa !7
  %25 = call i64 @ZSTD_decompressBlock_internal(ptr noundef %20, ptr noundef %21, i64 noundef %22, ptr noundef %23, i64 noundef %24, i32 noundef 0)
  store i64 %25, ptr %12, align 8, !tbaa !7
  br label %26

26:                                               ; preds = %5
  call void @llvm.lifetime.start.p0(i64 8, ptr %13) #14
  %27 = load i64, ptr %12, align 8, !tbaa !7
  store i64 %27, ptr %13, align 8, !tbaa !7
  %28 = load i64, ptr %13, align 8, !tbaa !7
  %29 = call i32 @ERR_isError(i64 noundef %28)
  %30 = icmp ne i32 %29, 0
  br i1 %30, label %31, label %45

31:                                               ; preds = %26
  br label %32

32:                                               ; preds = %31
  br label %33

33:                                               ; preds = %32
  br label %34

34:                                               ; preds = %33
  br label %35

35:                                               ; preds = %34
  br label %36

36:                                               ; preds = %35
  br label %37

37:                                               ; preds = %36
  br label %38

38:                                               ; preds = %37
  br label %39

39:                                               ; preds = %38
  br label %40

40:                                               ; preds = %39
  br label %41

41:                                               ; preds = %40
  br label %42

42:                                               ; preds = %41
  br label %43

43:                                               ; preds = %42
  %44 = load i64, ptr %13, align 8, !tbaa !7
  store i64 %44, ptr %6, align 8
  store i32 1, ptr %14, align 4
  br label %46

45:                                               ; preds = %26
  store i32 0, ptr %14, align 4
  br label %46

46:                                               ; preds = %45, %43
  call void @llvm.lifetime.end.p0(i64 8, ptr %13) #14
  %47 = load i32, ptr %14, align 4
  switch i32 %47, label %57 [
    i32 0, label %48
  ]

48:                                               ; preds = %46
  br label %49

49:                                               ; preds = %48
  br label %50

50:                                               ; preds = %49
  %51 = load ptr, ptr %8, align 8, !tbaa !3
  %52 = load i64, ptr %12, align 8, !tbaa !7
  %53 = getelementptr inbounds nuw i8, ptr %51, i64 %52
  %54 = load ptr, ptr %7, align 8, !tbaa !16
  %55 = getelementptr inbounds nuw %struct.ZSTD_DCtx_s, ptr %54, i32 0, i32 6
  store ptr %53, ptr %55, align 8, !tbaa !57
  %56 = load i64, ptr %12, align 8, !tbaa !7
  store i64 %56, ptr %6, align 8
  store i32 1, ptr %14, align 4
  br label %57

57:                                               ; preds = %50, %46
  call void @llvm.lifetime.end.p0(i64 8, ptr %12) #14
  %58 = load i64, ptr %6, align 8
  ret i64 %58
}

; Function Attrs: nounwind uwtable
define i64 @ZSTD_decompressBlock(ptr noundef %0, ptr noundef %1, i64 noundef %2, ptr noundef %3, i64 noundef %4) #0 {
  %6 = alloca ptr, align 8
  %7 = alloca ptr, align 8
  %8 = alloca i64, align 8
  %9 = alloca ptr, align 8
  %10 = alloca i64, align 8
  store ptr %0, ptr %6, align 8, !tbaa !16
  store ptr %1, ptr %7, align 8, !tbaa !3
  store i64 %2, ptr %8, align 8, !tbaa !7
  store ptr %3, ptr %9, align 8, !tbaa !3
  store i64 %4, ptr %10, align 8, !tbaa !7
  %11 = load ptr, ptr %6, align 8, !tbaa !16
  %12 = load ptr, ptr %7, align 8, !tbaa !3
  %13 = load i64, ptr %8, align 8, !tbaa !7
  %14 = load ptr, ptr %9, align 8, !tbaa !3
  %15 = load i64, ptr %10, align 8, !tbaa !7
  %16 = call i64 @ZSTD_decompressBlock_deprecated(ptr noundef %11, ptr noundef %12, i64 noundef %13, ptr noundef %14, i64 noundef %15)
  ret i64 %16
}